; Function Attrs: nounwind uwtable
define ptr @l___private_Lean_Elab_Print_0__Lean_Elab_Command_printDefLike___boxed(ptr noundef %0, ptr noundef %1, ptr noundef %2, ptr noundef %3, ptr noundef %4, ptr noundef %5, ptr noundef %6, ptr noundef %7, ptr noundef %8) local_unnamed_addr #0 {
  %10 = ptrtoint ptr %5 to i64
  %11 = lshr i64 %10, 1
  %12 = trunc i64 %11 to i8
  %13 = and i64 %10, 1
  %.not = icmp eq i64 %13, 0
  br i1 %.not, label %14, label %lean_dec.exit14

14:                                               ; preds = %9
  %15 = load i32, ptr %5, align 4, !tbaa !8
  %16 = icmp sgt i32 %15, 1
  br i1 %16, label %17, label %19, !prof !13

17:                                               ; preds = %14
  %18 = add nsw i32 %15, -1
  store i32 %18, ptr %5, align 4, !tbaa !8
  br label %lean_dec.exit14

19:                                               ; preds = %14
  %.not.i = icmp eq i32 %15, 0
  br i1 %.not.i, label %lean_dec.exit14, label %20

20:                                               ; preds = %19
  tail call void @lean_dec_ref_cold(ptr noundef nonnull %5) #5
  br label %lean_dec.exit14

lean_dec.exit14:                                  ; preds = %20, %19, %17, %9
  %21 = tail call ptr @l___private_Lean_Elab_Print_0__Lean_Elab_Command_printDefLike(ptr noundef %0, ptr noundef %1, ptr noundef %2, ptr noundef %3, ptr noundef %4, i8 noundef zeroext %12, ptr noundef %6, ptr noundef %7, ptr noundef %8)
  %22 = ptrtoint ptr %7 to i64
  %23 = and i64 %22, 1
  %.not19 = icmp eq i64 %23, 0
  br i1 %.not19, label %24, label %lean_dec.exit13

24:                                               ; preds = %lean_dec.exit14
  %25 = load i32, ptr %7, align 4, !tbaa !8
  %26 = icmp sgt i32 %25, 1
  br i1 %26, label %27, label %29, !prof !13

27:                                               ; preds = %24
  %28 = add nsw i32 %25, -1
  store i32 %28, ptr %7, align 4, !tbaa !8
  br label %lean_dec.exit13

29:                                               ; preds = %24
  %.not.i15 = icmp eq i32 %25, 0
  br i1 %.not.i15, label %lean_dec.exit13, label %30

30:                                               ; preds = %29
  tail call void @lean_dec_ref_cold(ptr noundef nonnull %7) #5
  br label %lean_dec.exit13

lean_dec.exit13:                                  ; preds = %30, %29, %27, %lean_dec.exit14
  %31 = ptrtoint ptr %0 to i64
  %32 = and i64 %31, 1
  %.not20 = icmp eq i64 %32, 0
  br i1 %.not20, label %33, label %lean_dec.exit

33:                                               ; preds = %lean_dec.exit13
  %34 = load i32, ptr %0, align 4, !tbaa !8
  %35 = icmp sgt i32 %34, 1
  br i1 %35, label %36, label %38, !prof !13

36:                                               ; preds = %33
  %37 = add nsw i32 %34, -1
  store i32 %37, ptr %0, align 4, !tbaa !8
  br label %lean_dec.exit

38:                                               ; preds = %33
  %.not.i17 = icmp eq i32 %34, 0
  br i1 %.not.i17, label %lean_dec.exit, label %39

39:                                               ; preds = %38
  tail call void @lean_dec_ref_cold(ptr noundef nonnull %0) #5
  br label %lean_dec.exit

lean_dec.exit:                                    ; preds = %39, %38, %36, %lean_dec.exit13
  ret ptr %21
}